target datalayout = "e-m:e-p270:32:32-p271:32:32-p272:64:64-i64:64-i128:128-f80:128-n8:16:32:64-S128"
target triple = "x86_64-pc-linux-gnu"

%struct.hb_face_t = type { %struct.hb_object_header_t, ptr, ptr, ptr, i32, %struct.hb_atomic_int_t, %struct.hb_atomic_int_t, %struct.hb_shaper_object_dataset_t, %struct.hb_ot_face_t, %struct.hb_atomic_ptr_t.138 }
%struct.hb_object_header_t = type { %struct.hb_reference_count_t, %struct.hb_atomic_int_t, %struct.hb_atomic_ptr_t }
%struct.hb_reference_count_t = type { %struct.hb_atomic_int_t }
%struct.hb_atomic_ptr_t = type { ptr }
%struct.hb_atomic_int_t = type { i32 }
%struct.hb_shaper_object_dataset_t = type { ptr, %struct.hb_shaper_lazy_loader_t, %struct.hb_shaper_lazy_loader_t.1 }
%struct.hb_shaper_lazy_loader_t = type { %struct.hb_lazy_loader_t }
%struct.hb_lazy_loader_t = type { %struct.hb_atomic_ptr_t.0 }
%struct.hb_atomic_ptr_t.0 = type { ptr }
%struct.hb_shaper_lazy_loader_t.1 = type { %struct.hb_lazy_loader_t.2 }
%struct.hb_lazy_loader_t.2 = type { %struct.hb_atomic_ptr_t.4 }
%struct.hb_atomic_ptr_t.4 = type { ptr }
%struct.hb_ot_face_t = type { ptr, %struct.hb_table_lazy_loader_t, %struct.hb_table_lazy_loader_t.7, %struct.hb_face_lazy_loader_t, %struct.hb_table_lazy_loader_t.12, %struct.hb_face_lazy_loader_t.15, %struct.hb_table_lazy_loader_t.19, %struct.hb_face_lazy_loader_t.22, %struct.hb_face_lazy_loader_t.26, %struct.hb_table_lazy_loader_t.30, %struct.hb_face_lazy_loader_t.33, %struct.hb_table_lazy_loader_t.37, %struct.hb_face_lazy_loader_t.40, %struct.hb_table_lazy_loader_t.44, %struct.hb_table_lazy_loader_t.47, %struct.hb_face_lazy_loader_t.50, %struct.hb_face_lazy_loader_t.54, %struct.hb_face_lazy_loader_t.58, %struct.hb_table_lazy_loader_t.62, %struct.hb_table_lazy_loader_t.65, %struct.hb_table_lazy_loader_t.68, %struct.hb_face_lazy_loader_t.71, %struct.hb_table_lazy_loader_t.75, %struct.hb_table_lazy_loader_t.78, %struct.hb_face_lazy_loader_t.81, %struct.hb_face_lazy_loader_t.85, %struct.hb_face_lazy_loader_t.89, %struct.hb_table_lazy_loader_t.93, %struct.hb_table_lazy_loader_t.96, %struct.hb_table_lazy_loader_t.99, %struct.hb_table_lazy_loader_t.102, %struct.hb_table_lazy_loader_t.105, %struct.hb_table_lazy_loader_t.108, %struct.hb_table_lazy_loader_t.111, %struct.hb_table_lazy_loader_t.114, %struct.hb_table_lazy_loader_t.117, %struct.hb_table_lazy_loader_t.120, %struct.hb_face_lazy_loader_t.123, %struct.hb_face_lazy_loader_t.127, %struct.hb_face_lazy_loader_t.131, %struct.hb_table_lazy_loader_t.135 }
%struct.hb_table_lazy_loader_t = type { %struct.hb_lazy_loader_t.5 }
%struct.hb_lazy_loader_t.5 = type { %struct.hb_atomic_ptr_t.6 }
%struct.hb_atomic_ptr_t.6 = type { ptr }
%struct.hb_table_lazy_loader_t.7 = type { %struct.hb_lazy_loader_t.8 }
%struct.hb_lazy_loader_t.8 = type { %struct.hb_atomic_ptr_t.6 }
%struct.hb_face_lazy_loader_t = type { %struct.hb_lazy_loader_t.9 }
%struct.hb_lazy_loader_t.9 = type { %struct.hb_atomic_ptr_t.11 }
%struct.hb_atomic_ptr_t.11 = type { ptr }
%struct.hb_table_lazy_loader_t.12 = type { %struct.hb_lazy_loader_t.13 }
%struct.hb_lazy_loader_t.13 = type { %struct.hb_atomic_ptr_t.6 }
%struct.hb_face_lazy_loader_t.15 = type { %struct.hb_lazy_loader_t.16 }
%struct.hb_lazy_loader_t.16 = type { %struct.hb_atomic_ptr_t.18 }
%struct.hb_atomic_ptr_t.18 = type { ptr }
%struct.hb_table_lazy_loader_t.19 = type { %struct.hb_lazy_loader_t.20 }
%struct.hb_lazy_loader_t.20 = type { %struct.hb_atomic_ptr_t.6 }
%struct.hb_face_lazy_loader_t.22 = type { %struct.hb_lazy_loader_t.23 }
%struct.hb_lazy_loader_t.23 = type { %struct.hb_atomic_ptr_t.25 }
%struct.hb_atomic_ptr_t.25 = type { ptr }
%struct.hb_face_lazy_loader_t.26 = type { %struct.hb_lazy_loader_t.27 }
%struct.hb_lazy_loader_t.27 = type { %struct.hb_atomic_ptr_t.29 }
%struct.hb_atomic_ptr_t.29 = type { ptr }
%struct.hb_table_lazy_loader_t.30 = type { %struct.hb_lazy_loader_t.31 }
%struct.hb_lazy_loader_t.31 = type { %struct.hb_atomic_ptr_t.6 }
%struct.hb_face_lazy_loader_t.33 = type { %struct.hb_lazy_loader_t.34 }
%struct.hb_lazy_loader_t.34 = type { %struct.hb_atomic_ptr_t.36 }
%struct.hb_atomic_ptr_t.36 = type { ptr }
%struct.hb_table_lazy_loader_t.37 = type { %struct.hb_lazy_loader_t.38 }
%struct.hb_lazy_loader_t.38 = type { %struct.hb_atomic_ptr_t.6 }
%struct.hb_face_lazy_loader_t.40 = type { %struct.hb_lazy_loader_t.41 }
%struct.hb_lazy_loader_t.41 = type { %struct.hb_atomic_ptr_t.43 }
%struct.hb_atomic_ptr_t.43 = type { ptr }
%struct.hb_table_lazy_loader_t.44 = type { %struct.hb_lazy_loader_t.45 }
%struct.hb_lazy_loader_t.45 = type { %struct.hb_atomic_ptr_t.6 }
%struct.hb_table_lazy_loader_t.47 = type { %struct.hb_lazy_loader_t.48 }
%struct.hb_lazy_loader_t.48 = type { %struct.hb_atomic_ptr_t.6 }
%struct.hb_face_lazy_loader_t.50 = type { %struct.hb_lazy_loader_t.51 }
%struct.hb_lazy_loader_t.51 = type { %struct.hb_atomic_ptr_t.53 }
%struct.hb_atomic_ptr_t.53 = type { ptr }
%struct.hb_face_lazy_loader_t.54 = type { %struct.hb_lazy_loader_t.55 }
%struct.hb_lazy_loader_t.55 = type { %struct.hb_atomic_ptr_t.57 }
%struct.hb_atomic_ptr_t.57 = type { ptr }
%struct.hb_face_lazy_loader_t.58 = type { %struct.hb_lazy_loader_t.59 }
%struct.hb_lazy_loader_t.59 = type { %struct.hb_atomic_ptr_t.61 }
%struct.hb_atomic_ptr_t.61 = type { ptr }
%struct.hb_table_lazy_loader_t.62 = type { %struct.hb_lazy_loader_t.63 }
%struct.hb_lazy_loader_t.63 = type { %struct.hb_atomic_ptr_t.6 }
%struct.hb_table_lazy_loader_t.65 = type { %struct.hb_lazy_loader_t.66 }
%struct.hb_lazy_loader_t.66 = type { %struct.hb_atomic_ptr_t.6 }
%struct.hb_table_lazy_loader_t.68 = type { %struct.hb_lazy_loader_t.69 }
%struct.hb_lazy_loader_t.69 = type { %struct.hb_atomic_ptr_t.6 }
%struct.hb_face_lazy_loader_t.71 = type { %struct.hb_lazy_loader_t.72 }
%struct.hb_lazy_loader_t.72 = type { %struct.hb_atomic_ptr_t.74 }
%struct.hb_atomic_ptr_t.74 = type { ptr }
%struct.hb_table_lazy_loader_t.75 = type { %struct.hb_lazy_loader_t.76 }
%struct.hb_lazy_loader_t.76 = type { %struct.hb_atomic_ptr_t.6 }
%struct.hb_table_lazy_loader_t.78 = type { %struct.hb_lazy_loader_t.79 }
%struct.hb_lazy_loader_t.79 = type { %struct.hb_atomic_ptr_t.6 }
%struct.hb_face_lazy_loader_t.81 = type { %struct.hb_lazy_loader_t.82 }
%struct.hb_lazy_loader_t.82 = type { %struct.hb_atomic_ptr_t.84 }
%struct.hb_atomic_ptr_t.84 = type { ptr }
%struct.hb_face_lazy_loader_t.85 = type { %struct.hb_lazy_loader_t.86 }
%struct.hb_lazy_loader_t.86 = type { %struct.hb_atomic_ptr_t.88 }
%struct.hb_atomic_ptr_t.88 = type { ptr }
%struct.hb_face_lazy_loader_t.89 = type { %struct.hb_lazy_loader_t.90 }
%struct.hb_lazy_loader_t.90 = type { %struct.hb_atomic_ptr_t.92 }
%struct.hb_atomic_ptr_t.92 = type { ptr }
%struct.hb_table_lazy_loader_t.93 = type { %struct.hb_lazy_loader_t.94 }
%struct.hb_lazy_loader_t.94 = type { %struct.hb_atomic_ptr_t.6 }
%struct.hb_table_lazy_loader_t.96 = type { %struct.hb_lazy_loader_t.97 }
%struct.hb_lazy_loader_t.97 = type { %struct.hb_atomic_ptr_t.6 }
%struct.hb_table_lazy_loader_t.99 = type { %struct.hb_lazy_loader_t.100 }
%struct.hb_lazy_loader_t.100 = type { %struct.hb_atomic_ptr_t.6 }
%struct.hb_table_lazy_loader_t.102 = type { %struct.hb_lazy_loader_t.103 }
%struct.hb_lazy_loader_t.103 = type { %struct.hb_atomic_ptr_t.6 }
%struct.hb_table_lazy_loader_t.105 = type { %struct.hb_lazy_loader_t.106 }
%struct.hb_lazy_loader_t.106 = type { %struct.hb_atomic_ptr_t.6 }
%struct.hb_table_lazy_loader_t.108 = type { %struct.hb_lazy_loader_t.109 }
%struct.hb_lazy_loader_t.109 = type { %struct.hb_atomic_ptr_t.6 }
%struct.hb_table_lazy_loader_t.111 = type { %struct.hb_lazy_loader_t.112 }
%struct.hb_lazy_loader_t.112 = type { %struct.hb_atomic_ptr_t.6 }
%struct.hb_table_lazy_loader_t.114 = type { %struct.hb_lazy_loader_t.115 }
%struct.hb_lazy_loader_t.115 = type { %struct.hb_atomic_ptr_t.6 }
%struct.hb_table_lazy_loader_t.117 = type { %struct.hb_lazy_loader_t.118 }
%struct.hb_lazy_loader_t.118 = type { %struct.hb_atomic_ptr_t.6 }
%struct.hb_table_lazy_loader_t.120 = type { %struct.hb_lazy_loader_t.121 }
%struct.hb_lazy_loader_t.121 = type { %struct.hb_atomic_ptr_t.6 }
%struct.hb_face_lazy_loader_t.123 = type { %struct.hb_lazy_loader_t.124 }
%struct.hb_lazy_loader_t.124 = type { %struct.hb_atomic_ptr_t.126 }
%struct.hb_atomic_ptr_t.126 = type { ptr }
%struct.hb_face_lazy_loader_t.127 = type { %struct.hb_lazy_loader_t.128 }
%struct.hb_lazy_loader_t.128 = type { %struct.hb_atomic_ptr_t.130 }
%struct.hb_atomic_ptr_t.130 = type { ptr }
%struct.hb_face_lazy_loader_t.131 = type { %struct.hb_lazy_loader_t.132 }
%struct.hb_lazy_loader_t.132 = type { %struct.hb_atomic_ptr_t.134 }
%struct.hb_atomic_ptr_t.134 = type { ptr }
%struct.hb_table_lazy_loader_t.135 = type { %struct.hb_lazy_loader_t.136 }
%struct.hb_lazy_loader_t.136 = type { %struct.hb_atomic_ptr_t.6 }
%struct.hb_atomic_ptr_t.138 = type { ptr }
%"struct.OT::CPAL" = type { %"struct.OT::IntType", %"struct.OT::IntType", %"struct.OT::IntType", %"struct.OT::IntType", %"struct.OT::OffsetTo", %"struct.OT::UnsizedArrayOf" }
%"struct.OT::IntType" = type { %struct.BEInt }
%struct.BEInt = type { [2 x i8] }
%"struct.OT::OffsetTo" = type { %"struct.OT::Offset" }
%"struct.OT::Offset" = type { %"struct.OT::IntType.139" }
%"struct.OT::IntType.139" = type { %struct.BEInt.140 }
%struct.BEInt.140 = type { [4 x i8] }
%"struct.OT::UnsizedArrayOf" = type { [1 x %"struct.OT::IntType"] }
%struct.hb_blob_t = type { %struct.hb_object_header_t, ptr, i32, i32, ptr, ptr }
%struct.hb_array_t.237 = type { ptr, i32, i32 }

@_hb_NullPool = external constant [80 x i64], align 16

; Function Attrs: mustprogress nounwind uwtable
define linkonce_odr hidden noundef nonnull align 1 dereferenceable(14) ptr @_ZN4NullIN2OT4CPALEE8get_nullEv() #2 comdat align 2 {
  ret ptr @_hb_NullPool
}

; Function Attrs: mustprogress uwtable
define linkonce_odr hidden noundef nonnull align 1 dereferenceable(14) ptr @_ZN10NullHelperIN2OT4CPALEE8get_nullEv() #0 comdat align 2 {
  %1 = call noundef nonnull align 1 dereferenceable(14) ptr @_ZN4NullIN2OT4CPALEE8get_nullEv()
  ret ptr %1
}

; Function Attrs: mustprogress nounwind uwtable
define linkonce_odr hidden void @_ZN10hb_array_tIKcEC2EPS0_j(ptr noundef nonnull align 8 dereferenceable(16) %0, ptr noundef %1, i32 noundef %2) unnamed_addr #2 comdat align 2 {
  %4 = alloca ptr, align 8
  %5 = alloca ptr, align 8
  %6 = alloca i32, align 4
  store ptr %0, ptr %4, align 8
  store ptr %1, ptr %5, align 8
  store i32 %2, ptr %6, align 4
  %7 = load ptr, ptr %4, align 8
  %8 = getelementptr inbounds %struct.hb_array_t.237, ptr %7, i32 0, i32 0
  %9 = load ptr, ptr %5, align 8
  store ptr %9, ptr %8, align 8
  %10 = getelementptr inbounds %struct.hb_array_t.237, ptr %7, i32 0, i32 1
  %11 = load i32, ptr %6, align 4
  store i32 %11, ptr %10, align 8
  %12 = getelementptr inbounds %struct.hb_array_t.237, ptr %7, i32 0, i32 2
  store i32 0, ptr %12, align 4
  ret void
}

; Function Attrs: mustprogress uwtable
define linkonce_odr hidden noundef ptr @_ZNK10hb_array_tIKcE2asIN2OT4CPALELj1ETnPN12hb_enable_ifIXeqT0_Li1EEvE4typeELPv0EEEPKT_v(ptr noundef nonnull align 8 dereferenceable(16) %0) #0 comdat align 2 {
  %2 = alloca ptr, align 8
  store ptr %0, ptr %2, align 8
  %3 = load ptr, ptr %2, align 8
  %4 = getelementptr inbounds %struct.hb_array_t.237, ptr %3, i32 0, i32 1
  %5 = load i32, ptr %4, align 8
  %6 = icmp ult i32 %5, 12
  br i1 %6, label %7, label %9

7:                                                ; preds = %1
  %8 = call noundef nonnull align 1 dereferenceable(14) ptr @_ZN10NullHelperIN2OT4CPALEE8get_nullEv()
  br label %12

9:                                                ; preds = %1
  %10 = getelementptr inbounds %struct.hb_array_t.237, ptr %3, i32 0, i32 0
  %11 = load ptr, ptr %10, align 8
  br label %12

12:                                               ; preds = %9, %7
  %13 = phi ptr [ %8, %7 ], [ %11, %9 ]
  ret ptr %13
}

; Function Attrs: mustprogress uwtable
define linkonce_odr hidden { ptr, i64 } @_ZNK9hb_blob_t8as_bytesEv(ptr noundef nonnull align 8 dereferenceable(48) %0) #0 comdat align 2 {
  %2 = alloca %struct.hb_array_t.237, align 8
  %3 = alloca ptr, align 8
  store ptr %0, ptr %3, align 8
  %4 = load ptr, ptr %3, align 8
  %5 = getelementptr inbounds %struct.hb_blob_t, ptr %4, i32 0, i32 1
  %6 = load ptr, ptr %5, align 8
  %7 = getelementptr inbounds %struct.hb_blob_t, ptr %4, i32 0, i32 2
  %8 = load i32, ptr %7, align 8
  call void @_ZN10hb_array_tIKcEC2EPS0_j(ptr noundef nonnull align 8 dereferenceable(16) %2, ptr noundef %6, i32 noundef %8)
  %9 = load { ptr, i64 }, ptr %2, align 8
  ret { ptr, i64 } %9
}

; Function Attrs: mustprogress uwtable
define linkonce_odr hidden noundef ptr @_ZNK9hb_blob_t2asIN2OT4CPALEEEPKT_v(ptr noundef nonnull align 8 dereferenceable(48) %0) #0 comdat align 2 {
  %2 = alloca ptr, align 8
  %3 = alloca %struct.hb_array_t.237, align 8
  store ptr %0, ptr %2, align 8
  %4 = load ptr, ptr %2, align 8
  %5 = call { ptr, i64 } @_ZNK9hb_blob_t8as_bytesEv(ptr noundef nonnull align 8 dereferenceable(48) %4)
  %6 = getelementptr inbounds { ptr, i64 }, ptr %3, i32 0, i32 0
  %7 = extractvalue { ptr, i64 } %5, 0
  store ptr %7, ptr %6, align 8
  %8 = getelementptr inbounds { ptr, i64 }, ptr %3, i32 0, i32 1
  %9 = extractvalue { ptr, i64 } %5, 1
  store i64 %9, ptr %8, align 8
  %10 = call noundef ptr @_ZNK10hb_array_tIKcE2asIN2OT4CPALELj1ETnPN12hb_enable_ifIXeqT0_Li1EEvE4typeELPv0EEEPKT_v(ptr noundef nonnull align 8 dereferenceable(16) %3)
  ret ptr %10
}

; Function Attrs: mustprogress nounwind uwtable
define linkonce_odr hidden noundef zeroext i16 @_ZNK5BEIntItLi2EEcvtEv(ptr noundef nonnull align 1 dereferenceable(2) %0) #2 comdat align 2 {
  %2 = alloca ptr, align 8
  store ptr %0, ptr %2, align 8
  %3 = load ptr, ptr %2, align 8
  %4 = getelementptr inbounds %struct.BEInt, ptr %3, i32 0, i32 0
  %5 = getelementptr inbounds [2 x i8], ptr %4, i64 0, i64 0
  %6 = load i8, ptr %5, align 1
  %7 = zext i8 %6 to i32
  %8 = shl i32 %7, 8
  %9 = getelementptr inbounds %struct.BEInt, ptr %3, i32 0, i32 0
  %10 = getelementptr inbounds [2 x i8], ptr %9, i64 0, i64 1
  %11 = load i8, ptr %10, align 1
  %12 = zext i8 %11 to i32
  %13 = add nsw i32 %8, %12
  %14 = trunc i32 %13 to i16
  ret i16 %14
}

; Function Attrs: mustprogress uwtable
define linkonce_odr hidden noundef ptr @_ZN22hb_table_lazy_loader_tIN2OT4CPALELj36ELb1EE7convertEPK9hb_blob_t(ptr noundef %0) #0 comdat align 2 {
  %2 = alloca ptr, align 8
  store ptr %0, ptr %2, align 8
  %3 = load ptr, ptr %2, align 8
  %4 = call noundef ptr @_ZNK9hb_blob_t2asIN2OT4CPALEEEPKT_v(ptr noundef nonnull align 8 dereferenceable(48) %3)
  ret ptr %4
}

; Function Attrs: mustprogress uwtable
define linkonce_odr hidden noundef i32 @_ZNK2OT7IntTypeItLj2EEcvjEv(ptr noundef nonnull align 1 dereferenceable(2) %0) #0 comdat align 2 {
  %2 = alloca ptr, align 8
  store ptr %0, ptr %2, align 8
  %3 = load ptr, ptr %2, align 8
  %4 = getelementptr inbounds %"struct.OT::IntType", ptr %3, i32 0, i32 0
  %5 = call noundef zeroext i16 @_ZNK5BEIntItLi2EEcvtEv(ptr noundef nonnull align 1 dereferenceable(2) %4)
  %6 = zext i16 %5 to i32
  ret i32 %6
}

; Function Attrs: mustprogress uwtable
define linkonce_odr hidden noundef ptr @_ZNK16hb_lazy_loader_tIN2OT4CPALE22hb_table_lazy_loader_tIS1_Lj36ELb1EE9hb_face_tLj36E9hb_blob_tE3getEv(ptr noundef nonnull align 8 dereferenceable(8) %0) #0 comdat align 2 {
  %2 = alloca ptr, align 8
  store ptr %0, ptr %2, align 8
  %3 = load ptr, ptr %2, align 8
  %4 = call noundef ptr @_ZNK16hb_lazy_loader_tIN2OT4CPALE22hb_table_lazy_loader_tIS1_Lj36ELb1EE9hb_face_tLj36E9hb_blob_tE10get_storedEv(ptr noundef nonnull align 8 dereferenceable(8) %3)
  %5 = call noundef ptr @_ZN22hb_table_lazy_loader_tIN2OT4CPALELj36ELb1EE7convertEPK9hb_blob_t(ptr noundef %4)
  ret ptr %5
}

; Function Attrs: mustprogress uwtable
define linkonce_odr hidden noundef zeroext i1 @_ZNK2OT4CPAL8has_dataEv(ptr noundef nonnull align 1 dereferenceable(14) %0) #0 comdat align 2 {
  %2 = alloca ptr, align 8
  store ptr %0, ptr %2, align 8
  %3 = load ptr, ptr %2, align 8
  %4 = getelementptr inbounds %"struct.OT::CPAL", ptr %3, i32 0, i32 2
  %5 = call noundef i32 @_ZNK2OT7IntTypeItLj2EEcvjEv(ptr noundef nonnull align 1 dereferenceable(2) %4)
  %6 = icmp ne i32 %5, 0
  ret i1 %6
}

; Function Attrs: mustprogress uwtable
define linkonce_odr hidden noundef ptr @_ZNK16hb_lazy_loader_tIN2OT4CPALE22hb_table_lazy_loader_tIS1_Lj36ELb1EE9hb_face_tLj36E9hb_blob_tEptEv(ptr noundef nonnull align 8 dereferenceable(8) %0) #0 comdat align 2 {
  %2 = alloca ptr, align 8
  store ptr %0, ptr %2, align 8
  %3 = load ptr, ptr %2, align 8
  %4 = call noundef ptr @_ZNK16hb_lazy_loader_tIN2OT4CPALE22hb_table_lazy_loader_tIS1_Lj36ELb1EE9hb_face_tLj36E9hb_blob_tE3getEv(ptr noundef nonnull align 8 dereferenceable(8) %3)
  ret ptr %4
}

; Function Attrs: mustprogress uwtable
define hidden i32 @hb_ot_color_has_palettes(ptr noundef %0) #0 {
  %2 = alloca ptr, align 8
  store ptr %0, ptr %2, align 8
  %3 = load ptr, ptr %2, align 8
  %4 = getelementptr inbounds %struct.hb_face_t, ptr %3, i32 0, i32 8
  %5 = getelementptr inbounds %struct.hb_ot_face_t, ptr %4, i32 0, i32 36
  %6 = call noundef ptr @_ZNK16hb_lazy_loader_tIN2OT4CPALE22hb_table_lazy_loader_tIS1_Lj36ELb1EE9hb_face_tLj36E9hb_blob_tEptEv(ptr noundef nonnull align 8 dereferenceable(8) %5)
  %7 = call noundef zeroext i1 @_ZNK2OT4CPAL8has_dataEv(ptr noundef nonnull align 1 dereferenceable(14) %6)
  %8 = zext i1 %7 to i32
  ret i32 %8
}