; Function Attrs: mustprogress uwtable
define hidden range(i32 0, 2) i32 @hb_ot_color_has_palettes(ptr noundef %0) local_unnamed_addr #0 {
  %2 = getelementptr inbounds i8, ptr %0, i64 368
  %3 = tail call noundef ptr @_ZNK16hb_lazy_loader_tIN2OT4CPALE22hb_table_lazy_loader_tIS1_Lj36ELb1EE9hb_face_tLj36E9hb_blob_tE10get_storedEv(ptr noundef nonnull align 8 dereferenceable(8) %2)
  %4 = getelementptr inbounds i8, ptr %3, i64 16
  %5 = load ptr, ptr %4, align 8
  %6 = getelementptr inbounds i8, ptr %3, i64 24
  %7 = load i32, ptr %6, align 8
  %8 = icmp ult i32 %7, 12
  %spec.select.i.i.i.i.i = select i1 %8, ptr @_hb_NullPool, ptr %5
  %9 = getelementptr inbounds i8, ptr %spec.select.i.i.i.i.i, i64 4
  %10 = load i8, ptr %9, align 1
  %11 = zext i8 %10 to i32
  %12 = shl nuw nsw i32 %11, 8
  %13 = getelementptr inbounds i8, ptr %spec.select.i.i.i.i.i, i64 5
  %14 = load i8, ptr %13, align 1
  %15 = zext i8 %14 to i32
  %16 = or disjoint i32 %12, %15
  %17 = icmp ne i32 %16, 0
  %18 = zext i1 %17 to i32
  ret i32 %18
}